target datalayout = "e-m:e-p270:32:32-p271:32:32-p272:64:64-i64:64-i128:128-f80:128-n8:16:32:64-S128"
target triple = "x86_64-pc-linux-gnu"

%"class.fmt::v11::basic_string_view" = type { ptr, i64 }
%"class.fmt::v11::basic_cstring_view" = type { ptr }
%"struct.fmt::v11::fstring" = type { %"class.fmt::v11::basic_string_view" }
%"class.std::system_error" = type { %"class.std::runtime_error", %"class.std::error_code" }
%"class.std::runtime_error" = type { %"class.std::exception", %"struct.std::__cow_string" }
%"class.std::exception" = type { ptr }
%"struct.std::__cow_string" = type { %union.anon }
%union.anon = type { ptr }
%"class.std::error_code" = type { i32, ptr }
%"class.fmt::v11::basic_format_args" = type { i64, %union.anon.97 }
%union.anon.97 = type { ptr }
%"struct.fmt::v11::detail::format_arg_store" = type { [1 x %"class.fmt::v11::detail::value"] }
%"class.fmt::v11::detail::value" = type { %union.anon.98 }
%union.anon.98 = type { i128 }
%struct.FMT_COMPILE_STRING.7 = type { i8 }
%class.anon.8 = type { i8 }
%"class.fmt::v11::file" = type { i32 }
%"struct.fmt::v11::detail::string_value" = type { ptr, i64 }

@_ZTISt12system_error = external constant ptr
@_ZN12_GLOBAL__N_110open_countE = internal global i32 0, align 4
@.str.109 = private unnamed_addr constant [20 x i8] c"cannot open file {}\00", align 1
@__const.fstring.sv.120 = private unnamed_addr constant %"class.fmt::v11::basic_string_view" { ptr @.str.109, i64 19 }, align 8

; Function Attrs: mustprogress nounwind uwtable
define linkonce_odr hidden void @_ZN3fmt3v1117basic_string_viewIcEC2EPKcm(ptr noundef nonnull align 8 dereferenceable(16) %0, ptr noundef %1, i64 noundef %2) unnamed_addr #0 comdat align 2 {
  %4 = alloca ptr, align 8
  %5 = alloca ptr, align 8
  %6 = alloca i64, align 8
  store ptr %0, ptr %4, align 8, !tbaa !109
  store ptr %1, ptr %5, align 8, !tbaa !17
  store i64 %2, ptr %6, align 8, !tbaa !26
  %7 = load ptr, ptr %4, align 8
  %8 = getelementptr inbounds nuw %"class.fmt::v11::basic_string_view", ptr %7, i32 0, i32 0
  %9 = load ptr, ptr %5, align 8, !tbaa !17
  store ptr %9, ptr %8, align 8, !tbaa !111
  %10 = getelementptr inbounds nuw %"class.fmt::v11::basic_string_view", ptr %7, i32 0, i32 1
  %11 = load i64, ptr %6, align 8, !tbaa !26
  store i64 %11, ptr %10, align 8, !tbaa !113
  ret void
}

; Function Attrs: mustprogress nounwind uwtable
define linkonce_odr hidden noundef i32 @_ZNSt11char_traitsIcE11to_int_typeERKc(ptr noundef nonnull align 1 dereferenceable(1) %0) #0 comdat align 2 {
  %2 = alloca ptr, align 8
  store ptr %0, ptr %2, align 8, !tbaa !17
  %3 = load ptr, ptr %2, align 8, !tbaa !17
  %4 = load i8, ptr %3, align 1, !tbaa !53
  %5 = zext i8 %4 to i32
  ret i32 %5
}

; Function Attrs: mustprogress nounwind uwtable
define linkonce_odr hidden { ptr, i64 } @_ZN3fmt3v116detail22compile_string_to_viewIcLm20EEENS0_17basic_string_viewIT_EERAT0__KS4_(ptr noundef nonnull align 1 dereferenceable(20) %0) #0 comdat {
  %2 = alloca %"class.fmt::v11::basic_string_view", align 8
  %3 = alloca ptr, align 8
  store ptr %0, ptr %3, align 8, !tbaa !17
  %4 = load ptr, ptr %3, align 8, !tbaa !17
  %5 = getelementptr inbounds [20 x i8], ptr %4, i64 0, i64 0
  %6 = load ptr, ptr %3, align 8, !tbaa !17
  %7 = getelementptr inbounds nuw [20 x i8], ptr %6, i64 0, i64 19
  %8 = call noundef i32 @_ZNSt11char_traitsIcE11to_int_typeERKc(ptr noundef nonnull align 1 dereferenceable(1) %7) #16
  %9 = icmp eq i32 %8, 0
  %10 = select i1 %9, i32 1, i32 0
  %11 = sext i32 %10 to i64
  %12 = sub i64 20, %11
  call void @_ZN3fmt3v1117basic_string_viewIcEC2EPKcm(ptr noundef nonnull align 8 dereferenceable(16) %2, ptr noundef %5, i64 noundef %12) #16
  %13 = load { ptr, i64 }, ptr %2, align 8
  ret { ptr, i64 } %13
}

; Function Attrs: alwaysinline mustprogress nounwind uwtable
define linkonce_odr hidden void @"_ZN3fmt3v1117basic_format_argsINS0_7contextEEC2ILi1ELi0ELy12ETnNSt9enable_ifIXleT_LNS0_6detail4$_14E15EEiE4typeELi0EEERKNS6_16format_arg_storeIS2_XT_EXT0_EXT1_EEE"(ptr noundef nonnull align 8 dereferenceable(16) %0, ptr noundef nonnull align 16 dereferenceable(16) %1) unnamed_addr #8 comdat align 2 {
  %3 = alloca ptr, align 8
  %4 = alloca ptr, align 8
  store ptr %0, ptr %3, align 8, !tbaa !327
  store ptr %1, ptr %4, align 8, !tbaa !329
  %5 = load ptr, ptr %3, align 8
  %6 = getelementptr inbounds nuw %"class.fmt::v11::basic_format_args", ptr %5, i32 0, i32 0
  store i64 12, ptr %6, align 8, !tbaa !331
  %7 = getelementptr inbounds nuw %"class.fmt::v11::basic_format_args", ptr %5, i32 0, i32 1
  %8 = load ptr, ptr %4, align 8, !tbaa !329
  %9 = getelementptr inbounds nuw %"struct.fmt::v11::detail::format_arg_store", ptr %8, i32 0, i32 0
  %10 = getelementptr inbounds [1 x %"class.fmt::v11::detail::value"], ptr %9, i64 0, i64 0
  store ptr %10, ptr %7, align 8, !tbaa !53
  ret void
}

; Function Attrs: alwaysinline mustprogress nounwind uwtable
define linkonce_odr hidden void @_ZN3fmt3v116detail5valueINS0_7contextEEC2EPKc(ptr noundef nonnull align 16 dereferenceable(16) %0, ptr noundef %1) unnamed_addr #8 comdat align 2 {
  %3 = alloca ptr, align 8
  %4 = alloca ptr, align 8
  store ptr %0, ptr %3, align 8, !tbaa !325
  store ptr %1, ptr %4, align 8, !tbaa !17
  %5 = load ptr, ptr %3, align 8
  %6 = load ptr, ptr %4, align 8, !tbaa !17
  %7 = getelementptr inbounds nuw %"class.fmt::v11::detail::value", ptr %5, i32 0, i32 0
  %8 = getelementptr inbounds nuw %"struct.fmt::v11::detail::string_value", ptr %7, i32 0, i32 0
  store ptr %6, ptr %8, align 16, !tbaa !53
  ret void
}

; Function Attrs: mustprogress nounwind uwtable
define linkonce_odr hidden void @_ZN3fmt3v116detail13ignore_unusedIJiEEEvDpRKT_(ptr noundef nonnull align 4 dereferenceable(4) %0) #0 comdat {
  %2 = alloca ptr, align 8
  store ptr %0, ptr %2, align 8, !tbaa !64
  ret void
}

; Function Attrs: mustprogress nounwind uwtable
define linkonce_odr hidden void @_ZN3fmt3v116detail13ignore_unusedIJNS0_17basic_string_viewIcEEEEEvDpRKT_(ptr noundef nonnull align 8 dereferenceable(16) %0) #0 comdat {
  %2 = alloca ptr, align 8
  store ptr %0, ptr %2, align 8, !tbaa !109
  ret void
}

; Function Attrs: mustprogress nounwind uwtable
define internal { ptr, i64 } @"_ZZZN3fmt3v114fileC1ENS0_18basic_cstring_viewIcEEiENK3$_0clEvENK18FMT_COMPILE_STRINGcvNS0_17basic_string_viewIcEEEv"(ptr noundef nonnull align 1 dereferenceable(1) %0) #0 align 2 {
  %2 = alloca %"class.fmt::v11::basic_string_view", align 8
  %3 = alloca ptr, align 8
  store ptr %0, ptr %3, align 8, !tbaa !44
  %4 = call { ptr, i64 } @_ZN3fmt3v116detail22compile_string_to_viewIcLm20EEENS0_17basic_string_viewIT_EERAT0__KS4_(ptr noundef nonnull align 1 dereferenceable(20) @.str.109)
  %5 = getelementptr inbounds nuw { ptr, i64 }, ptr %2, i32 0, i32 0
  %6 = extractvalue { ptr, i64 } %4, 0
  store ptr %6, ptr %5, align 8
  %7 = getelementptr inbounds nuw { ptr, i64 }, ptr %2, i32 0, i32 1
  %8 = extractvalue { ptr, i64 } %4, 1
  store i64 %8, ptr %7, align 8
  %9 = load { ptr, i64 }, ptr %2, align 8
  ret { ptr, i64 } %9
}

; Function Attrs: mustprogress uwtable
define linkonce_odr hidden void @_ZN3fmt3v1112system_errorIJPKcEEESt12system_erroriNS0_7fstringIJDpT_EE1tEDpOS6_(ptr dead_on_unwind noalias writable sret(%"class.std::system_error") align 8 %0, i32 noundef %1, ptr %2, i64 %3, ptr noundef nonnull align 8 dereferenceable(8) %4) #1 comdat {
  %6 = alloca ptr, align 8
  %7 = alloca %"struct.fmt::v11::fstring", align 8
  %8 = alloca i32, align 4
  %9 = alloca ptr, align 8
  %10 = alloca %"class.fmt::v11::basic_string_view", align 8
  %11 = alloca %"class.fmt::v11::basic_format_args", align 8
  %12 = alloca %"struct.fmt::v11::detail::format_arg_store", align 16
  store ptr %0, ptr %6, align 8
  %13 = getelementptr inbounds nuw { ptr, i64 }, ptr %7, i32 0, i32 0
  store ptr %2, ptr %13, align 8
  %14 = getelementptr inbounds nuw { ptr, i64 }, ptr %7, i32 0, i32 1
  store i64 %3, ptr %14, align 8
  store i32 %1, ptr %8, align 4, !tbaa !12
  store ptr %4, ptr %9, align 8, !tbaa !23
  %15 = load i32, ptr %8, align 4, !tbaa !12
  %16 = getelementptr inbounds nuw %"struct.fmt::v11::fstring", ptr %7, i32 0, i32 0
  call void @llvm.memcpy.p0.p0.i64(ptr align 8 %10, ptr align 8 %16, i64 16, i1 false), !tbaa.struct !25
  call void @llvm.lifetime.start.p0(i64 16, ptr %12) #16
  %17 = getelementptr inbounds nuw %"struct.fmt::v11::detail::format_arg_store", ptr %12, i32 0, i32 0
  %18 = load ptr, ptr %9, align 8, !tbaa !23
  %19 = load ptr, ptr %18, align 8, !tbaa !17
  call void @_ZN3fmt3v116detail5valueINS0_7contextEEC2EPKc(ptr noundef nonnull align 16 dereferenceable(16) %17, ptr noundef %19)
  call void @"_ZN3fmt3v1117basic_format_argsINS0_7contextEEC2ILi1ELi0ELy12ETnNSt9enable_ifIXleT_LNS0_6detail4$_14E15EEiE4typeELi0EEERKNS6_16format_arg_storeIS2_XT_EXT0_EXT1_EEE"(ptr noundef nonnull align 8 dereferenceable(16) %11, ptr noundef nonnull align 16 dereferenceable(16) %12)
  %20 = getelementptr inbounds nuw { ptr, i64 }, ptr %10, i32 0, i32 0
  %21 = load ptr, ptr %20, align 8
  %22 = getelementptr inbounds nuw { ptr, i64 }, ptr %10, i32 0, i32 1
  %23 = load i64, ptr %22, align 8
  %24 = getelementptr inbounds nuw { i64, ptr }, ptr %11, i32 0, i32 0
  %25 = load i64, ptr %24, align 8
  %26 = getelementptr inbounds nuw { i64, ptr }, ptr %11, i32 0, i32 1
  %27 = load ptr, ptr %26, align 8
  call void @_ZN3fmt3v1113vsystem_errorEiNS0_17basic_string_viewIcEENS0_17basic_format_argsINS0_7contextEEE(ptr dead_on_unwind writable sret(%"class.std::system_error") align 8 %0, i32 noundef %15, ptr %21, i64 %23, i64 %25, ptr %27)
  call void @llvm.lifetime.end.p0(i64 16, ptr %12) #16
  ret void
}

; Function Attrs: alwaysinline mustprogress nounwind uwtable
define internal void @"_ZN3fmt3v117fstringIJPKcEEC2IZZNS0_4fileC1ENS0_18basic_cstring_viewIcEEiENK3$_0clEvE18FMT_COMPILE_STRINGTnNSt9enable_ifIXaasr3std10is_base_ofINS0_6detail14compile_stringET_EE5valuesr3std7is_sameINSE_9char_typeEcEE5valueEiE4typeELi0EEERKSE_"(ptr noundef nonnull align 8 dereferenceable(16) %0, ptr noundef nonnull align 1 dereferenceable(1) %1) unnamed_addr #8 align 2 {
  %3 = alloca ptr, align 8
  %4 = alloca ptr, align 8
  %5 = alloca %struct.FMT_COMPILE_STRING.7, align 1
  %6 = alloca %"class.fmt::v11::basic_string_view", align 8
  %7 = alloca i32, align 4
  store ptr %0, ptr %3, align 8, !tbaa !29
  store ptr %1, ptr %4, align 8, !tbaa !44
  %8 = load ptr, ptr %3, align 8
  call void @llvm.lifetime.start.p0(i64 1, ptr %5) #16
  %9 = call { ptr, i64 } @"_ZZZN3fmt3v114fileC1ENS0_18basic_cstring_viewIcEEiENK3$_0clEvENK18FMT_COMPILE_STRINGcvNS0_17basic_string_viewIcEEEv"(ptr noundef nonnull align 1 dereferenceable(1) %5)
  %10 = getelementptr inbounds nuw { ptr, i64 }, ptr %8, i32 0, i32 0
  %11 = extractvalue { ptr, i64 } %9, 0
  store ptr %11, ptr %10, align 8
  %12 = getelementptr inbounds nuw { ptr, i64 }, ptr %8, i32 0, i32 1
  %13 = extractvalue { ptr, i64 } %9, 1
  store i64 %13, ptr %12, align 8
  call void @llvm.lifetime.end.p0(i64 1, ptr %5) #16
  call void @llvm.lifetime.start.p0(i64 16, ptr %6) #16
  call void @llvm.memcpy.p0.p0.i64(ptr align 8 %6, ptr align 8 @__const.fstring.sv.120, i64 16, i1 false)
  call void @llvm.lifetime.start.p0(i64 4, ptr %7) #16
  store i32 0, ptr %7, align 4, !tbaa !12
  call void @_ZN3fmt3v116detail13ignore_unusedIJiEEEvDpRKT_(ptr noundef nonnull align 4 dereferenceable(4) %7)
  call void @llvm.lifetime.end.p0(i64 4, ptr %7) #16
  call void @llvm.lifetime.end.p0(i64 16, ptr %6) #16
  ret void
}

; Function Attrs: inlinehint mustprogress uwtable
define internal void @"_ZZN3fmt3v114fileC1ENS0_18basic_cstring_viewIcEEiENK3$_0clEv"(ptr noundef nonnull align 1 dereferenceable(1) %0) #6 align 2 {
  %2 = alloca ptr, align 8
  %3 = alloca %"class.fmt::v11::basic_string_view", align 8
  %4 = alloca %struct.FMT_COMPILE_STRING.7, align 1
  store ptr %0, ptr %2, align 8, !tbaa !28
  call void @llvm.lifetime.start.p0(i64 16, ptr %3) #16
  call void @llvm.lifetime.start.p0(i64 1, ptr %4) #16
  %5 = call { ptr, i64 } @"_ZZZN3fmt3v114fileC1ENS0_18basic_cstring_viewIcEEiENK3$_0clEvENK18FMT_COMPILE_STRINGcvNS0_17basic_string_viewIcEEEv"(ptr noundef nonnull align 1 dereferenceable(1) %4)
  %6 = getelementptr inbounds nuw { ptr, i64 }, ptr %3, i32 0, i32 0
  %7 = extractvalue { ptr, i64 } %5, 0
  store ptr %7, ptr %6, align 8
  %8 = getelementptr inbounds nuw { ptr, i64 }, ptr %3, i32 0, i32 1
  %9 = extractvalue { ptr, i64 } %5, 1
  store i64 %9, ptr %8, align 8
  call void @_ZN3fmt3v116detail13ignore_unusedIJNS0_17basic_string_viewIcEEEEEvDpRKT_(ptr noundef nonnull align 8 dereferenceable(16) %3)
  call void @llvm.lifetime.end.p0(i64 1, ptr %4) #16
  call void @llvm.lifetime.end.p0(i64 16, ptr %3) #16
  ret void
}

; Function Attrs: mustprogress uwtable
define hidden noundef i32 @_ZN4test4openEPKcii(ptr noundef %0, i32 noundef %1, i32 noundef %2) #1 {
  %4 = alloca i32, align 4
  %5 = alloca ptr, align 8
  %6 = alloca i32, align 4
  %7 = alloca i32, align 4
  store ptr %0, ptr %5, align 8, !tbaa !17
  store i32 %1, ptr %6, align 4, !tbaa !12
  store i32 %2, ptr %7, align 4, !tbaa !12
  %8 = load i32, ptr @_ZN12_GLOBAL__N_110open_countE, align 4, !tbaa !12
  %9 = icmp ne i32 %8, 0
  br i1 %9, label %10, label %17

10:                                               ; preds = %3
  %11 = load i32, ptr @_ZN12_GLOBAL__N_110open_countE, align 4, !tbaa !12
  %12 = add nsw i32 %11, 1
  store i32 %12, ptr @_ZN12_GLOBAL__N_110open_countE, align 4, !tbaa !12
  %13 = icmp ne i32 %11, 3
  br i1 %13, label %14, label %16

14:                                               ; preds = %10
  %15 = call ptr @__errno_location() #20
  store i32 4, ptr %15, align 4, !tbaa !12
  store i32 -1, ptr %4, align 4
  br label %22

16:                                               ; preds = %10
  br label %17

17:                                               ; preds = %16, %3
  %18 = load ptr, ptr %5, align 8, !tbaa !17
  %19 = load i32, ptr %6, align 4, !tbaa !12
  %20 = load i32, ptr %7, align 4, !tbaa !12
  %21 = call i32 (ptr, i32, ...) @open(ptr noundef %18, i32 noundef %19, i32 noundef %20)
  store i32 %21, ptr %4, align 4
  br label %22

22:                                               ; preds = %17, %14
  %23 = load i32, ptr %4, align 4
  ret i32 %23
}

; Function Attrs: mustprogress nounwind uwtable
define linkonce_odr hidden noundef ptr @_ZNK3fmt3v1118basic_cstring_viewIcE5c_strEv(ptr noundef nonnull align 8 dereferenceable(8) %0) #0 comdat align 2 {
  %2 = alloca ptr, align 8
  store ptr %0, ptr %2, align 8, !tbaa !19
  %3 = load ptr, ptr %2, align 8
  %4 = getelementptr inbounds nuw %"class.fmt::v11::basic_cstring_view", ptr %3, i32 0, i32 0
  %5 = load ptr, ptr %4, align 8, !tbaa !21
  ret ptr %5
}

; Function Attrs: mustprogress uwtable
define hidden void @_ZN3fmt3v114fileC2ENS0_18basic_cstring_viewIcEEi(ptr noundef nonnull align 4 dereferenceable(4) %0, ptr %1, i32 noundef %2) unnamed_addr #1 align 2 personality ptr @__gxx_personality_v0 {
  %4 = alloca %"class.fmt::v11::basic_cstring_view", align 8
  %5 = alloca ptr, align 8
  %6 = alloca i32, align 4
  %7 = alloca %"struct.fmt::v11::fstring", align 8
  %8 = alloca %struct.FMT_COMPILE_STRING.7, align 1
  %9 = alloca %class.anon.8, align 1
  %10 = alloca ptr, align 8
  %11 = alloca i32, align 4
  %12 = alloca ptr, align 8
  %13 = alloca i1, align 1
  %14 = getelementptr inbounds nuw %"class.fmt::v11::basic_cstring_view", ptr %4, i32 0, i32 0
  store ptr %1, ptr %14, align 8
  store ptr %0, ptr %5, align 8, !tbaa !39
  store i32 %2, ptr %6, align 4, !tbaa !12
  %15 = load ptr, ptr %5, align 8
  br label %16

16:                                               ; preds = %29, %3
  %17 = call noundef ptr @_ZNK3fmt3v1118basic_cstring_viewIcE5c_strEv(ptr noundef nonnull align 8 dereferenceable(8) %4)
  %18 = load i32, ptr %6, align 4, !tbaa !12
  %19 = call noundef i32 @_ZN4test4openEPKcii(ptr noundef %17, i32 noundef %18, i32 noundef 438)
  %20 = getelementptr inbounds nuw %"class.fmt::v11::file", ptr %15, i32 0, i32 0
  store i32 %19, ptr %20, align 4, !tbaa !41
  br label %21

21:                                               ; preds = %16
  %22 = getelementptr inbounds nuw %"class.fmt::v11::file", ptr %15, i32 0, i32 0
  %23 = load i32, ptr %22, align 4, !tbaa !41
  %24 = icmp eq i32 %23, -1
  br i1 %24, label %25, label %29

25:                                               ; preds = %21
  %26 = call ptr @__errno_location() #20
  %27 = load i32, ptr %26, align 4, !tbaa !12
  %28 = icmp eq i32 %27, 4
  br label %29

29:                                               ; preds = %25, %21
  %30 = phi i1 [ false, %21 ], [ %28, %25 ]
  br i1 %30, label %16, label %31, !llvm.loop !43

31:                                               ; preds = %29
  %32 = getelementptr inbounds nuw %"class.fmt::v11::file", ptr %15, i32 0, i32 0
  %33 = load i32, ptr %32, align 4, !tbaa !41
  %34 = icmp eq i32 %33, -1
  br i1 %34, label %35, label %60

35:                                               ; preds = %31
  store i1 true, ptr %13, align 1
  %36 = call ptr @__cxa_allocate_exception(i64 32) #16
  %37 = call ptr @__errno_location() #20
  %38 = load i32, ptr %37, align 4, !tbaa !12
  call void @llvm.lifetime.start.p0(i64 1, ptr %8) #16
  call void @llvm.lifetime.start.p0(i64 1, ptr %9) #16
  invoke void @"_ZZN3fmt3v114fileC1ENS0_18basic_cstring_viewIcEEiENK3$_0clEv"(ptr noundef nonnull align 1 dereferenceable(1) %9)
          to label %39 unwind label %48

39:                                               ; preds = %35
  invoke void @"_ZN3fmt3v117fstringIJPKcEEC2IZZNS0_4fileC1ENS0_18basic_cstring_viewIcEEiENK3$_0clEvE18FMT_COMPILE_STRINGTnNSt9enable_ifIXaasr3std10is_base_ofINS0_6detail14compile_stringET_EE5valuesr3std7is_sameINSE_9char_typeEcEE5valueEiE4typeELi0EEERKSE_"(ptr noundef nonnull align 8 dereferenceable(16) %7, ptr noundef nonnull align 1 dereferenceable(1) %8)
          to label %40 unwind label %48

40:                                               ; preds = %39
  call void @llvm.lifetime.start.p0(i64 8, ptr %12) #16
  %41 = invoke noundef ptr @_ZNK3fmt3v1118basic_cstring_viewIcE5c_strEv(ptr noundef nonnull align 8 dereferenceable(8) %4)
          to label %42 unwind label %52

42:                                               ; preds = %40
  store ptr %41, ptr %12, align 8, !tbaa !17
  %43 = getelementptr inbounds nuw { ptr, i64 }, ptr %7, i32 0, i32 0
  %44 = load ptr, ptr %43, align 8
  %45 = getelementptr inbounds nuw { ptr, i64 }, ptr %7, i32 0, i32 1
  %46 = load i64, ptr %45, align 8
  invoke void @_ZN3fmt3v1112system_errorIJPKcEEESt12system_erroriNS0_7fstringIJDpT_EE1tEDpOS6_(ptr dead_on_unwind writable sret(%"class.std::system_error") align 8 %36, i32 noundef %38, ptr %44, i64 %46, ptr noundef nonnull align 8 dereferenceable(8) %12)
          to label %47 unwind label %52

47:                                               ; preds = %42
  store i1 false, ptr %13, align 1
  invoke void @__cxa_throw(ptr %36, ptr @_ZTISt12system_error, ptr @_ZNSt12system_errorD1Ev) #22
          to label %66 unwind label %52

48:                                               ; preds = %39, %35
  %49 = landingpad { ptr, i32 }
          cleanup
  %50 = extractvalue { ptr, i32 } %49, 0
  store ptr %50, ptr %10, align 8
  %51 = extractvalue { ptr, i32 } %49, 1
  store i32 %51, ptr %11, align 4
  br label %56

52:                                               ; preds = %47, %42, %40
  %53 = landingpad { ptr, i32 }
          cleanup
  %54 = extractvalue { ptr, i32 } %53, 0
  store ptr %54, ptr %10, align 8
  %55 = extractvalue { ptr, i32 } %53, 1
  store i32 %55, ptr %11, align 4
  call void @llvm.lifetime.end.p0(i64 8, ptr %12) #16
  br label %56

56:                                               ; preds = %52, %48
  call void @llvm.lifetime.end.p0(i64 1, ptr %9) #16
  call void @llvm.lifetime.end.p0(i64 1, ptr %8) #16
  %57 = load i1, ptr %13, align 1
  br i1 %57, label %58, label %59

58:                                               ; preds = %56
  call void @__cxa_free_exception(ptr %36) #16
  br label %59

59:                                               ; preds = %58, %56
  br label %61

60:                                               ; preds = %31
  ret void

61:                                               ; preds = %59
  %62 = load ptr, ptr %10, align 8
  %63 = load i32, ptr %11, align 4
  %64 = insertvalue { ptr, i32 } poison, ptr %62, 0
  %65 = insertvalue { ptr, i32 } %64, i32 %63, 1
  resume { ptr, i32 } %65

66:                                               ; preds = %47
  unreachable
}