; Function Attrs: mustprogress uwtable
define hidden void @_ZN3fmt3v114fileC2ENS0_18basic_cstring_viewIcEEi(ptr noundef nonnull writeonly align 4 captures(none) dereferenceable(4) initializes((0, 4)) %0, ptr %1, i32 noundef %2) unnamed_addr #6 align 2 personality ptr @__gxx_personality_v0 {
  %4 = alloca %"struct.fmt::v11::detail::format_arg_store", align 16
  br label %5

5:                                                ; preds = %12, %3
  %6 = load i32, ptr @_ZN12_GLOBAL__N_110open_countE, align 4, !tbaa !10
  %.not.i = icmp eq i32 %6, 0
  br i1 %.not.i, label %_ZN4test4openEPKcii.exit, label %7

7:                                                ; preds = %5
  %8 = add nsw i32 %6, 1
  store i32 %8, ptr @_ZN12_GLOBAL__N_110open_countE, align 4, !tbaa !10
  %.not4.i = icmp eq i32 %6, 3
  br i1 %.not4.i, label %_ZN4test4openEPKcii.exit, label %_ZN4test4openEPKcii.exit.thread

_ZN4test4openEPKcii.exit.thread:                  ; preds = %7
  %9 = tail call ptr @__errno_location() #28
  store i32 4, ptr %9, align 4, !tbaa !10
  store i32 -1, ptr %0, align 4, !tbaa !24
  br label %12

_ZN4test4openEPKcii.exit:                         ; preds = %5, %7
  %10 = tail call i32 (ptr, i32, ...) @open(ptr noundef readonly %1, i32 noundef %2, i32 noundef 438)
  store i32 %10, ptr %0, align 4, !tbaa !24
  %11 = icmp eq i32 %10, -1
  br i1 %11, label %_ZN4test4openEPKcii.exit._crit_edge, label %.critedge

_ZN4test4openEPKcii.exit._crit_edge:              ; preds = %_ZN4test4openEPKcii.exit
  %.pre = tail call ptr @__errno_location() #28
  br label %12

12:                                               ; preds = %_ZN4test4openEPKcii.exit._crit_edge, %_ZN4test4openEPKcii.exit.thread
  %.pre-phi = phi ptr [ %.pre, %_ZN4test4openEPKcii.exit._crit_edge ], [ %9, %_ZN4test4openEPKcii.exit.thread ]
  %13 = load i32, ptr %.pre-phi, align 4, !tbaa !10
  %14 = icmp eq i32 %13, 4
  br i1 %14, label %5, label %15, !llvm.loop !26

15:                                               ; preds = %12
  %16 = tail call ptr @__cxa_allocate_exception(i64 32) #29
  %17 = load i32, ptr %.pre-phi, align 4, !tbaa !10
  call void @llvm.lifetime.start.p0(i64 16, ptr nonnull %4) #29, !noalias !27
  store ptr %1, ptr %4, align 16, !tbaa !17, !noalias !27
  invoke void @_ZN3fmt3v1113vsystem_errorEiNS0_17basic_string_viewIcEENS0_17basic_format_argsINS0_7contextEEE(ptr dead_on_unwind writable sret(%"class.std::system_error") align 8 %16, i32 noundef %17, ptr nonnull @.str.109, i64 19, i64 12, ptr nonnull %4)
          to label %18 unwind label %19

18:                                               ; preds = %15
  call void @llvm.lifetime.end.p0(i64 16, ptr nonnull %4) #29, !noalias !27
  call void @__cxa_throw(ptr %16, ptr nonnull @_ZTISt12system_error, ptr nonnull @_ZNSt12system_errorD1Ev) #31
  unreachable

19:                                               ; preds = %15
  %20 = landingpad { ptr, i32 }
          cleanup
  call void @__cxa_free_exception(ptr %16) #29
  resume { ptr, i32 } %20

.critedge:                                        ; preds = %_ZN4test4openEPKcii.exit
  ret void
}